target datalayout = "e-m:e-p270:32:32-p271:32:32-p272:64:64-i64:64-i128:128-f80:128-n8:16:32:64-S128"
target triple = "x86_64-pc-linux-gnu"

%struct.MPVEncContext = type { %struct.MpegEncContext, %struct.PutBitContext, i32, i32, ptr, i32, i32, i32, i32, i32, i32, i32, i32, ptr, ptr, %struct.FDCTDSPContext, %struct.MpegvideoEncDSPContext, %struct.PixblockDSPContext, %struct.MotionEstContext, i32, i32, ptr, ptr, ptr, ptr, ptr, ptr, [2 x [2 x [2 x ptr]]], [2 x ptr], [2 x [2 x ptr]], ptr, ptr, ptr, ptr, [3 x i64], i32, i32, i32, i32, i32, ptr, ptr, ptr, ptr, ptr, ptr, ptr, [12 x i32], ptr, ptr, ptr, ptr, ptr, ptr, ptr, ptr, [2 x i32], ptr, i32, i32, i32, i32, i32, i32, i32, i32, i32, i32, ptr, ptr, i32, i32, %struct.PutBitContext, %struct.PutBitContext, i32, i32, i32, i32, ptr, ptr, ptr, [2 x ptr], [2 x ptr], [2 x ptr], [2 x ptr], ptr, i32 }
%struct.MpegEncContext = type { ptr, i32, i32, i32, [12 x i32], i32, %struct.ScanTable, %struct.ScanTable, [64 x i8], [64 x i8], ptr, ptr, i32, i32, i32, i32, i32, i32, i32, i32, i32, i32, i32, i32, i32, i32, i32, i32, i32, i32, i32, i32, i64, i64, ptr, %struct.BufferPoolContext, i32, i32, %union.anon, i32, %struct.MPVWorkPicture, %struct.MPVWorkPicture, %struct.MPVWorkPicture, i32, [3 x i32], ptr, [3 x ptr], ptr, ptr, ptr, ptr, ptr, ptr, [3 x ptr], i32, ptr, ptr, ptr, ptr, %struct.ScratchpadContext, i32, i32, i32, i32, i32, i32, %struct.BlockDSPContext, %struct.H264ChromaContext, %struct.HpelDSPContext, %struct.IDCTDSPContext, %struct.QpelDSPContext, %struct.VideoDSPContext, %struct.H263DSPContext, ptr, [2 x [2 x ptr]], i32, i32, [2 x [4 x [2 x i32]]], [2 x [2 x i32]], [2 x [2 x [2 x i32]]], [2 x [64 x i16]], i32, i32, i32, i32, i32, [6 x i32], [6 x i32], [3 x ptr], ptr, [64 x i16], [64 x i16], [64 x i16], [64 x i16], i32, i32, %struct.GetBitContext, i32, i32, i32, i32, i32, i32, i32, i32, i32, i32, i32, i32, i32, i32, i32, i64, i64, i16, i16, i16, i16, i32, i32, i32, i32, i32, i32, i32, i32, i32, [3 x i32], i32, i32, i32, i32, i32, i32, %struct.GetBitContext, i32, [2 x [2 x i32]], i32, i32, i32, i32, i32, i32, i32, i32, i32, i32, i32, i32, i32, i32, [2 x i32], i32, i32, ptr, ptr, ptr, ptr, ptr, i32, i32, %struct.ERContext }
%struct.ScanTable = type { ptr, [64 x i8], [64 x i8] }
%struct.BufferPoolContext = type { ptr, ptr, ptr, ptr, ptr, i32, i32, i32 }
%union.anon = type { [32 x ptr] }
%struct.MPVWorkPicture = type { [3 x ptr], [3 x i64], ptr, ptr, [2 x ptr], ptr, ptr, [2 x ptr], i32 }
%struct.ScratchpadContext = type { ptr, ptr, %union.anon.0, i32 }
%union.anon.0 = type { ptr }
%struct.BlockDSPContext = type { ptr, ptr, [2 x ptr] }
%struct.H264ChromaContext = type { [4 x ptr], [4 x ptr] }
%struct.HpelDSPContext = type { [4 x [4 x ptr]], [4 x [4 x ptr]], [4 x [4 x ptr]], [4 x ptr] }
%struct.IDCTDSPContext = type { ptr, ptr, ptr, ptr, ptr, ptr, [64 x i8], i32, i32 }
%struct.QpelDSPContext = type { [2 x [16 x ptr]], [2 x [16 x ptr]], [2 x [16 x ptr]] }
%struct.VideoDSPContext = type { ptr, ptr }
%struct.H263DSPContext = type { ptr, ptr }
%struct.GetBitContext = type { ptr, ptr, i32, i32, i32 }
%struct.ERContext = type { ptr, ptr, i32, ptr, i32, i32, i32, i64, i64, i32, i32, ptr, ptr, [3 x ptr], ptr, ptr, [2 x [4 x [2 x i32]]], %struct.ERPicture, %struct.ERPicture, %struct.ERPicture, [2 x ptr], [2 x ptr], i16, i16, i32, i32, ptr, ptr }
%struct.ERPicture = type { ptr, ptr, ptr, [2 x ptr], [2 x ptr], ptr, i32 }
%struct.FDCTDSPContext = type { ptr, ptr }
%struct.MpegvideoEncDSPContext = type { ptr, ptr, ptr, ptr, [4 x ptr], ptr }
%struct.PixblockDSPContext = type { ptr, ptr, ptr, ptr }
%struct.MotionEstContext = type { ptr, i32, i32, [4 x [2 x i32]], [4 x [2 x i32]], ptr, ptr, i32, i32, i32, i32, i32, i32, i32, i32, i32, i32, i32, i32, i32, i32, i32, i32, [4 x [4 x ptr]], [4 x [4 x ptr]], i32, i32, i64, i64, i32, [6 x ptr], [6 x ptr], [6 x ptr], [6 x ptr], [2 x [4 x ptr]], ptr, ptr, ptr, ptr, ptr, ptr, ptr, ptr, [64 x i32], [64 x i32] }
%struct.PutBitContext = type { i32, i32, ptr, ptr, ptr }
%struct.AVCodecContext = type { ptr, i32, i32, ptr, i32, i32, ptr, ptr, ptr, i64, i32, i32, ptr, i32, %struct.AVRational, %struct.AVRational, %struct.AVRational, i32, i32, i32, i32, i32, %struct.AVRational, i32, i32, i32, i32, i32, i32, i32, i32, i32, i32, i32, ptr, ptr, i32, float, float, float, float, float, float, float, float, float, i32, i32, i32, i32, i32, i32, i32, i32, i32, i32, i32, i32, ptr, ptr, ptr, i32, i32, i32, i32, i32, i32, i32, i32, i32, i32, %struct.AVChannelLayout, i32, i32, i32, i32, i32, i32, i32, i32, ptr, i32, i32, i32, float, float, i32, i32, i32, i32, i32, ptr, i64, i64, float, float, i32, i32, ptr, ptr, i32, i32, i32, i32, i32, ptr, ptr, ptr, ptr, i32, i32, [8 x i64], i32, i32, i32, i32, i32, i32, i32, ptr, ptr, i32, i32, i32, i32, i32, i32, i32, i32, i32, i32, ptr, ptr, i32, i32, ptr, ptr, ptr, ptr, i32, i32, i64, i32, i32, i64, ptr, i64, ptr, i32, ptr, i32 }
%struct.AVRational = type { i32, i32 }
%struct.AVChannelLayout = type { i32, i32, %union.anon.1, ptr }
%union.anon.1 = type { i64 }

; Function Attrs: nounwind uwtable
define void @ff_me_init_pic(ptr noundef %0) #0 {
  %2 = alloca ptr, align 8
  %3 = alloca ptr, align 8
  store ptr %0, ptr %2, align 8, !tbaa !4
  call void @llvm.lifetime.start.p0(i64 8, ptr %3) #12
  %4 = load ptr, ptr %2, align 8, !tbaa !4
  %5 = getelementptr inbounds nuw %struct.MPVEncContext, ptr %4, i32 0, i32 18
  store ptr %5, ptr %3, align 8, !tbaa !11
  %6 = load ptr, ptr %3, align 8, !tbaa !11
  %7 = getelementptr inbounds nuw %struct.MotionEstContext, ptr %6, i32 0, i32 0
  %8 = load ptr, ptr %7, align 8, !tbaa !74
  %9 = getelementptr inbounds nuw %struct.AVCodecContext, ptr %8, i32 0, i32 10
  %10 = load i32, ptr %9, align 8, !tbaa !109
  %11 = and i32 %10, 16
  %12 = icmp ne i32 %11, 0
  br i1 %12, label %13, label %43

13:                                               ; preds = %1
  %14 = load ptr, ptr %2, align 8, !tbaa !4
  %15 = getelementptr inbounds nuw %struct.MPVEncContext, ptr %14, i32 0, i32 0
  %16 = getelementptr inbounds nuw %struct.MpegEncContext, ptr %15, i32 0, i32 70
  %17 = getelementptr inbounds nuw %struct.QpelDSPContext, ptr %16, i32 0, i32 1
  %18 = getelementptr inbounds [2 x [16 x ptr]], ptr %17, i64 0, i64 0
  %19 = load ptr, ptr %3, align 8, !tbaa !11
  %20 = getelementptr inbounds nuw %struct.MotionEstContext, ptr %19, i32 0, i32 39
  store ptr %18, ptr %20, align 8, !tbaa !123
  %21 = load ptr, ptr %2, align 8, !tbaa !4
  %22 = getelementptr inbounds nuw %struct.MPVEncContext, ptr %21, i32 0, i32 0
  %23 = getelementptr inbounds nuw %struct.MpegEncContext, ptr %22, i32 0, i32 81
  %24 = load i32, ptr %23, align 8, !tbaa !124
  %25 = icmp ne i32 %24, 0
  br i1 %25, label %26, label %34

26:                                               ; preds = %13
  %27 = load ptr, ptr %2, align 8, !tbaa !4
  %28 = getelementptr inbounds nuw %struct.MPVEncContext, ptr %27, i32 0, i32 0
  %29 = getelementptr inbounds nuw %struct.MpegEncContext, ptr %28, i32 0, i32 70
  %30 = getelementptr inbounds nuw %struct.QpelDSPContext, ptr %29, i32 0, i32 2
  %31 = getelementptr inbounds [2 x [16 x ptr]], ptr %30, i64 0, i64 0
  %32 = load ptr, ptr %3, align 8, !tbaa !11
  %33 = getelementptr inbounds nuw %struct.MotionEstContext, ptr %32, i32 0, i32 38
  store ptr %31, ptr %33, align 8, !tbaa !125
  br label %42

34:                                               ; preds = %13
  %35 = load ptr, ptr %2, align 8, !tbaa !4
  %36 = getelementptr inbounds nuw %struct.MPVEncContext, ptr %35, i32 0, i32 0
  %37 = getelementptr inbounds nuw %struct.MpegEncContext, ptr %36, i32 0, i32 70
  %38 = getelementptr inbounds nuw %struct.QpelDSPContext, ptr %37, i32 0, i32 0
  %39 = getelementptr inbounds [2 x [16 x ptr]], ptr %38, i64 0, i64 0
  %40 = load ptr, ptr %3, align 8, !tbaa !11
  %41 = getelementptr inbounds nuw %struct.MotionEstContext, ptr %40, i32 0, i32 38
  store ptr %39, ptr %41, align 8, !tbaa !125
  br label %42

42:                                               ; preds = %34, %26
  br label %43

43:                                               ; preds = %42, %1
  %44 = load ptr, ptr %2, align 8, !tbaa !4
  %45 = getelementptr inbounds nuw %struct.MPVEncContext, ptr %44, i32 0, i32 0
  %46 = getelementptr inbounds nuw %struct.MpegEncContext, ptr %45, i32 0, i32 68
  %47 = getelementptr inbounds nuw %struct.HpelDSPContext, ptr %46, i32 0, i32 1
  %48 = getelementptr inbounds [4 x [4 x ptr]], ptr %47, i64 0, i64 0
  %49 = load ptr, ptr %3, align 8, !tbaa !11
  %50 = getelementptr inbounds nuw %struct.MotionEstContext, ptr %49, i32 0, i32 37
  store ptr %48, ptr %50, align 8, !tbaa !126
  %51 = load ptr, ptr %2, align 8, !tbaa !4
  %52 = getelementptr inbounds nuw %struct.MPVEncContext, ptr %51, i32 0, i32 0
  %53 = getelementptr inbounds nuw %struct.MpegEncContext, ptr %52, i32 0, i32 81
  %54 = load i32, ptr %53, align 8, !tbaa !124
  %55 = icmp ne i32 %54, 0
  br i1 %55, label %56, label %64

56:                                               ; preds = %43
  %57 = load ptr, ptr %2, align 8, !tbaa !4
  %58 = getelementptr inbounds nuw %struct.MPVEncContext, ptr %57, i32 0, i32 0
  %59 = getelementptr inbounds nuw %struct.MpegEncContext, ptr %58, i32 0, i32 68
  %60 = getelementptr inbounds nuw %struct.HpelDSPContext, ptr %59, i32 0, i32 2
  %61 = getelementptr inbounds [4 x [4 x ptr]], ptr %60, i64 0, i64 0
  %62 = load ptr, ptr %3, align 8, !tbaa !11
  %63 = getelementptr inbounds nuw %struct.MotionEstContext, ptr %62, i32 0, i32 36
  store ptr %61, ptr %63, align 8, !tbaa !127
  br label %72

64:                                               ; preds = %43
  %65 = load ptr, ptr %2, align 8, !tbaa !4
  %66 = getelementptr inbounds nuw %struct.MPVEncContext, ptr %65, i32 0, i32 0
  %67 = getelementptr inbounds nuw %struct.MpegEncContext, ptr %66, i32 0, i32 68
  %68 = getelementptr inbounds nuw %struct.HpelDSPContext, ptr %67, i32 0, i32 0
  %69 = getelementptr inbounds [4 x [4 x ptr]], ptr %68, i64 0, i64 0
  %70 = load ptr, ptr %3, align 8, !tbaa !11
  %71 = getelementptr inbounds nuw %struct.MotionEstContext, ptr %70, i32 0, i32 36
  store ptr %69, ptr %71, align 8, !tbaa !127
  br label %72

72:                                               ; preds = %64, %56
  %73 = load ptr, ptr %2, align 8, !tbaa !4
  %74 = getelementptr inbounds nuw %struct.MPVEncContext, ptr %73, i32 0, i32 0
  %75 = getelementptr inbounds nuw %struct.MpegEncContext, ptr %74, i32 0, i32 32
  %76 = load i64, ptr %75, align 8, !tbaa !128
  %77 = icmp ne i64 %76, 0
  br i1 %77, label %78, label %93

78:                                               ; preds = %72
  %79 = load ptr, ptr %2, align 8, !tbaa !4
  %80 = getelementptr inbounds nuw %struct.MPVEncContext, ptr %79, i32 0, i32 0
  %81 = getelementptr inbounds nuw %struct.MpegEncContext, ptr %80, i32 0, i32 32
  %82 = load i64, ptr %81, align 8, !tbaa !128
  %83 = trunc i64 %82 to i32
  %84 = load ptr, ptr %3, align 8, !tbaa !11
  %85 = getelementptr inbounds nuw %struct.MotionEstContext, ptr %84, i32 0, i32 25
  store i32 %83, ptr %85, align 8, !tbaa !122
  %86 = load ptr, ptr %2, align 8, !tbaa !4
  %87 = getelementptr inbounds nuw %struct.MPVEncContext, ptr %86, i32 0, i32 0
  %88 = getelementptr inbounds nuw %struct.MpegEncContext, ptr %87, i32 0, i32 33
  %89 = load i64, ptr %88, align 8, !tbaa !129
  %90 = trunc i64 %89 to i32
  %91 = load ptr, ptr %3, align 8, !tbaa !11
  %92 = getelementptr inbounds nuw %struct.MotionEstContext, ptr %91, i32 0, i32 26
  store i32 %90, ptr %92, align 4, !tbaa !130
  br label %110

93:                                               ; preds = %72
  %94 = load ptr, ptr %2, align 8, !tbaa !4
  %95 = getelementptr inbounds nuw %struct.MPVEncContext, ptr %94, i32 0, i32 0
  %96 = getelementptr inbounds nuw %struct.MpegEncContext, ptr %95, i32 0, i32 25
  %97 = load i32, ptr %96, align 4, !tbaa !91
  %98 = mul nsw i32 16, %97
  %99 = add nsw i32 %98, 32
  %100 = load ptr, ptr %3, align 8, !tbaa !11
  %101 = getelementptr inbounds nuw %struct.MotionEstContext, ptr %100, i32 0, i32 25
  store i32 %99, ptr %101, align 8, !tbaa !122
  %102 = load ptr, ptr %2, align 8, !tbaa !4
  %103 = getelementptr inbounds nuw %struct.MPVEncContext, ptr %102, i32 0, i32 0
  %104 = getelementptr inbounds nuw %struct.MpegEncContext, ptr %103, i32 0, i32 25
  %105 = load i32, ptr %104, align 4, !tbaa !91
  %106 = mul nsw i32 8, %105
  %107 = add nsw i32 %106, 16
  %108 = load ptr, ptr %3, align 8, !tbaa !11
  %109 = getelementptr inbounds nuw %struct.MotionEstContext, ptr %108, i32 0, i32 26
  store i32 %107, ptr %109, align 4, !tbaa !130
  br label %110

110:                                              ; preds = %93, %78
  %111 = load ptr, ptr %2, align 8, !tbaa !4
  %112 = getelementptr inbounds nuw %struct.MPVEncContext, ptr %111, i32 0, i32 0
  %113 = getelementptr inbounds nuw %struct.MpegEncContext, ptr %112, i32 0, i32 19
  %114 = load i32, ptr %113, align 4, !tbaa !131
  %115 = icmp ne i32 %114, 208
  br i1 %115, label %116, label %137

116:                                              ; preds = %110
  %117 = load ptr, ptr %3, align 8, !tbaa !11
  %118 = getelementptr inbounds nuw %struct.MotionEstContext, ptr %117, i32 0, i32 36
  %119 = load ptr, ptr %118, align 8, !tbaa !127
  %120 = getelementptr inbounds [4 x ptr], ptr %119, i64 2
  %121 = getelementptr inbounds [4 x ptr], ptr %120, i64 0, i64 3
  store ptr @zero_hpel, ptr %121, align 8, !tbaa !30
  %122 = load ptr, ptr %3, align 8, !tbaa !11
  %123 = getelementptr inbounds nuw %struct.MotionEstContext, ptr %122, i32 0, i32 36
  %124 = load ptr, ptr %123, align 8, !tbaa !127
  %125 = getelementptr inbounds [4 x ptr], ptr %124, i64 2
  %126 = getelementptr inbounds [4 x ptr], ptr %125, i64 0, i64 2
  store ptr @zero_hpel, ptr %126, align 8, !tbaa !30
  %127 = load ptr, ptr %3, align 8, !tbaa !11
  %128 = getelementptr inbounds nuw %struct.MotionEstContext, ptr %127, i32 0, i32 36
  %129 = load ptr, ptr %128, align 8, !tbaa !127
  %130 = getelementptr inbounds [4 x ptr], ptr %129, i64 2
  %131 = getelementptr inbounds [4 x ptr], ptr %130, i64 0, i64 1
  store ptr @zero_hpel, ptr %131, align 8, !tbaa !30
  %132 = load ptr, ptr %3, align 8, !tbaa !11
  %133 = getelementptr inbounds nuw %struct.MotionEstContext, ptr %132, i32 0, i32 36
  %134 = load ptr, ptr %133, align 8, !tbaa !127
  %135 = getelementptr inbounds [4 x ptr], ptr %134, i64 2
  %136 = getelementptr inbounds [4 x ptr], ptr %135, i64 0, i64 0
  store ptr @zero_hpel, ptr %136, align 8, !tbaa !30
  br label %137

137:                                              ; preds = %116, %110
  %138 = load ptr, ptr %3, align 8, !tbaa !11
  %139 = getelementptr inbounds nuw %struct.MotionEstContext, ptr %138, i32 0, i32 29
  store i32 0, ptr %139, align 8, !tbaa !132
  %140 = load ptr, ptr %3, align 8, !tbaa !11
  %141 = getelementptr inbounds nuw %struct.MotionEstContext, ptr %140, i32 0, i32 27
  store i64 0, ptr %141, align 8, !tbaa !133
  %142 = load ptr, ptr %3, align 8, !tbaa !11
  %143 = getelementptr inbounds nuw %struct.MotionEstContext, ptr %142, i32 0, i32 28
  store i64 0, ptr %143, align 8, !tbaa !134
  call void @llvm.lifetime.end.p0(i64 8, ptr %3) #12
  ret void
}