; Function Attrs: mustprogress nofree norecurse nosync nounwind willreturn memory(readwrite, inaccessiblemem: none) uwtable
define void @ff_me_init_pic(ptr noundef %0) local_unnamed_addr #8 {
  %2 = getelementptr inbounds nuw i8, ptr %0, i64 5024
  %3 = load ptr, ptr %2, align 8, !tbaa !79
  %4 = getelementptr inbounds nuw i8, ptr %3, i64 64
  %5 = load i32, ptr %4, align 8, !tbaa !109
  %6 = and i32 %5, 16
  %.not = icmp eq i32 %6, 0
  br i1 %.not, label %17, label %7

7:                                                ; preds = %1
  %8 = getelementptr inbounds nuw i8, ptr %0, i64 2384
  %9 = getelementptr inbounds nuw i8, ptr %0, i64 5760
  store ptr %8, ptr %9, align 8, !tbaa !66
  %10 = getelementptr inbounds nuw i8, ptr %0, i64 3344
  %11 = load i32, ptr %10, align 8, !tbaa !123
  %.not33 = icmp eq i32 %11, 0
  %12 = getelementptr inbounds nuw i8, ptr %0, i64 5752
  %13 = getelementptr inbounds nuw i8, ptr %0, i64 1720
  %14 = getelementptr inbounds nuw i8, ptr %0, i64 5744
  br i1 %.not33, label %.thread, label %.thread40

.thread40:                                        ; preds = %7
  %15 = getelementptr inbounds nuw i8, ptr %0, i64 2640
  store ptr %15, ptr %12, align 8, !tbaa !65
  store ptr %13, ptr %14, align 8, !tbaa !62
  br label %22

.thread:                                          ; preds = %7
  %16 = getelementptr inbounds nuw i8, ptr %0, i64 2128
  store ptr %16, ptr %12, align 8, !tbaa !65
  store ptr %13, ptr %14, align 8, !tbaa !62
  br label %21

17:                                               ; preds = %1
  %.phi.trans.insert = getelementptr inbounds nuw i8, ptr %0, i64 3344
  %.pre = load i32, ptr %.phi.trans.insert, align 8, !tbaa !123
  %18 = icmp eq i32 %.pre, 0
  %19 = getelementptr inbounds nuw i8, ptr %0, i64 1720
  %20 = getelementptr inbounds nuw i8, ptr %0, i64 5744
  store ptr %19, ptr %20, align 8, !tbaa !62
  br i1 %18, label %21, label %22

21:                                               ; preds = %.thread, %17
  br label %22

22:                                               ; preds = %17, %.thread40, %21
  %.sink = phi i64 [ 1592, %21 ], [ 1848, %.thread40 ], [ 1848, %17 ]
  %23 = getelementptr inbounds nuw i8, ptr %0, i64 %.sink
  %24 = getelementptr inbounds nuw i8, ptr %0, i64 5736
  store ptr %23, ptr %24, align 8, !tbaa !61
  %25 = getelementptr inbounds nuw i8, ptr %0, i64 568
  %26 = load i64, ptr %25, align 8, !tbaa !124
  %.not35 = icmp eq i64 %26, 0
  br i1 %.not35, label %32, label %27

27:                                               ; preds = %22
  %28 = trunc i64 %26 to i32
  %29 = getelementptr inbounds nuw i8, ptr %0, i64 576
  %30 = load i64, ptr %29, align 8, !tbaa !125
  %31 = trunc i64 %30 to i32
  br label %39

32:                                               ; preds = %22
  %33 = getelementptr inbounds nuw i8, ptr %0, i64 540
  %34 = load i32, ptr %33, align 4, !tbaa !96
  %35 = shl nsw i32 %34, 4
  %36 = add nsw i32 %35, 32
  %37 = shl nsw i32 %34, 3
  %38 = add nsw i32 %37, 16
  br label %39

39:                                               ; preds = %32, %27
  %.sink38 = phi i32 [ %36, %32 ], [ %28, %27 ]
  %.sink37 = phi i32 [ %38, %32 ], [ %31, %27 ]
  %40 = getelementptr inbounds nuw i8, ptr %0, i64 5440
  store i32 %.sink38, ptr %40, align 8, !tbaa !19
  %41 = getelementptr inbounds nuw i8, ptr %0, i64 5444
  store i32 %.sink37, ptr %41, align 4, !tbaa !67
  %42 = getelementptr inbounds nuw i8, ptr %0, i64 516
  %43 = load i32, ptr %42, align 4, !tbaa !126
  %.not36 = icmp eq i32 %43, 208
  br i1 %.not36, label %52, label %44

44:                                               ; preds = %39
  %45 = getelementptr inbounds nuw i8, ptr %23, i64 88
  store ptr @zero_hpel, ptr %45, align 8, !tbaa !18
  %46 = load ptr, ptr %24, align 8, !tbaa !61
  %47 = getelementptr inbounds nuw i8, ptr %46, i64 80
  store ptr @zero_hpel, ptr %47, align 8, !tbaa !18
  %48 = load ptr, ptr %24, align 8, !tbaa !61
  %49 = getelementptr inbounds nuw i8, ptr %48, i64 72
  store ptr @zero_hpel, ptr %49, align 8, !tbaa !18
  %50 = load ptr, ptr %24, align 8, !tbaa !61
  %51 = getelementptr inbounds nuw i8, ptr %50, i64 64
  store ptr @zero_hpel, ptr %51, align 8, !tbaa !18
  br label %52

52:                                               ; preds = %44, %39
  %53 = getelementptr inbounds nuw i8, ptr %0, i64 5448
  tail call void @llvm.memset.p0.i64(ptr noundef nonnull align 8 dereferenceable(20) %53, i8 0, i64 20, i1 false)
  ret void
}